; Function Attrs: mustprogress uwtable
define hidden noundef ptr @_ZN17duckdb_libpgquery5lconsEPvPNS_6PGListE(ptr noundef %0, ptr noundef captures(address_is_null, ret: address, provenance) %1) local_unnamed_addr #0 {
  %3 = icmp eq ptr %1, null
  %4 = tail call noundef ptr @_ZN17duckdb_libpgquery6pallocEm(i64 noundef 16)
  br i1 %3, label %5, label %11

5:                                                ; preds = %2
  %6 = getelementptr inbounds nuw i8, ptr %4, i64 8
  store ptr null, ptr %6, align 8, !tbaa !3
  %7 = tail call noundef ptr @_ZN17duckdb_libpgquery6pallocEm(i64 noundef 24)
  store i32 221, ptr %7, align 8, !tbaa !9
  %8 = getelementptr inbounds nuw i8, ptr %7, i64 4
  store i32 1, ptr %8, align 4, !tbaa !13
  %9 = getelementptr inbounds nuw i8, ptr %7, i64 8
  store ptr %4, ptr %9, align 8, !tbaa !14
  %10 = getelementptr inbounds nuw i8, ptr %7, i64 16
  store ptr %4, ptr %10, align 8, !tbaa !15
  br label %18

11:                                               ; preds = %2
  %12 = getelementptr inbounds nuw i8, ptr %1, i64 8
  %13 = load ptr, ptr %12, align 8, !tbaa !14
  %14 = getelementptr inbounds nuw i8, ptr %4, i64 8
  store ptr %13, ptr %14, align 8, !tbaa !3
  store ptr %4, ptr %12, align 8, !tbaa !14
  %15 = getelementptr inbounds nuw i8, ptr %1, i64 4
  %16 = load i32, ptr %15, align 4, !tbaa !13
  %17 = add nsw i32 %16, 1
  store i32 %17, ptr %15, align 4, !tbaa !13
  br label %18

18:                                               ; preds = %11, %5
  %.0 = phi ptr [ %7, %5 ], [ %1, %11 ]
  store ptr %0, ptr %4, align 8, !tbaa !16
  ret ptr %.0
}